target datalayout = "e-m:e-p270:32:32-p271:32:32-p272:64:64-i64:64-i128:128-f80:128-n8:16:32:64-S128"
target triple = "x86_64-unknown-linux-gnu"

%"class.google::protobuf::internal::InternalMetadata" = type { i64 }
%"class.google::protobuf::internal::CachedSize" = type { i32 }
%"class.google::protobuf::internal::ExplicitlyConstructed" = type { %"union.google::protobuf::internal::ExplicitlyConstructed<std::__cxx11::basic_string<char>, 8>::AlignedUnion" }
%"union.google::protobuf::internal::ExplicitlyConstructed<std::__cxx11::basic_string<char>, 8>::AlignedUnion" = type { i64, [24 x i8] }
%"class.google::protobuf::internal::HasBits" = type { [1 x i32] }
%"struct.google::protobuf::internal::ArenaStringPtr" = type { %"class.google::protobuf::internal::TaggedStringPtr" }
%"class.google::protobuf::internal::TaggedStringPtr" = type { ptr }
%"class.google::protobuf::internal::MapEntry" = type { %"class.google::protobuf::internal::MapEntryBase", %"struct.google::protobuf::internal::ArenaStringPtr", ptr }
%"class.google::protobuf::internal::MapEntryBase" = type { %"class.google::protobuf::Message", %"class.google::protobuf::internal::HasBits", %"class.google::protobuf::internal::CachedSize" }
%"class.google::protobuf::Message" = type { %"class.google::protobuf::MessageLite" }
%"class.google::protobuf::MessageLite" = type { ptr, %"class.google::protobuf::internal::InternalMetadata" }

@_ZN6google8protobuf8internal26fixed_address_empty_stringB5cxx11E = external global %"class.google::protobuf::internal::ExplicitlyConstructed", align 8
@_ZTVN6google8protobuf7MessageE = external unnamed_addr constant { [13 x ptr] }, align 8

; Function Attrs: mustprogress nounwind uwtable
define linkonce_odr hidden void @_ZN6google8protobuf8internal16InternalMetadataC2Ev(ptr noundef nonnull align 8 dereferenceable(8) %this) unnamed_addr #5 comdat align 2 {
entry:
  %this.addr = alloca ptr, align 8
  store ptr %this, ptr %this.addr, align 8
  %this1 = load ptr, ptr %this.addr, align 8
  %ptr_ = getelementptr inbounds %"class.google::protobuf::internal::InternalMetadata", ptr %this1, i32 0, i32 0
  store i64 0, ptr %ptr_, align 8
  ret void
}

; Function Attrs: mustprogress nounwind uwtable
define linkonce_odr hidden void @_ZN6google8protobuf8internal15TaggedStringPtrC2EPNS1_21ExplicitlyConstructedINSt7__cxx1112basic_stringIcSt11char_traitsIcESaIcEEELm8EEE(ptr noundef nonnull align 8 dereferenceable(8) %this, ptr noundef %ptr) unnamed_addr #5 comdat align 2 {
entry:
  %this.addr = alloca ptr, align 8
  %ptr.addr = alloca ptr, align 8
  store ptr %this, ptr %this.addr, align 8
  store ptr %ptr, ptr %ptr.addr, align 8
  %this1 = load ptr, ptr %this.addr, align 8
  %ptr_ = getelementptr inbounds %"class.google::protobuf::internal::TaggedStringPtr", ptr %this1, i32 0, i32 0
  %0 = load ptr, ptr %ptr.addr, align 8
  store ptr %0, ptr %ptr_, align 8
  ret void
}

; Function Attrs: mustprogress nounwind uwtable
define linkonce_odr hidden void @_ZN6google8protobuf11MessageLiteD2Ev(ptr noundef nonnull align 8 dereferenceable(16) %this) unnamed_addr #5 comdat align 2 {
entry:
  %this.addr = alloca ptr, align 8
  store ptr %this, ptr %this.addr, align 8
  ret void
}

; Function Attrs: mustprogress uwtable
define linkonce_odr hidden void @_ZN6google8protobuf11MessageLiteC2Ev(ptr noundef nonnull align 8 dereferenceable(16) %this) unnamed_addr #4 comdat align 2 {
entry:
  %this.addr = alloca ptr, align 8
  store ptr %this, ptr %this.addr, align 8
  %this1 = load ptr, ptr %this.addr, align 8
  store ptr getelementptr inbounds ({ [12 x ptr] }, ptr @_ZTVN6google8protobuf11MessageLiteE, i32 0, i32 0, i32 2), ptr %this1, align 8
  %_internal_metadata_ = getelementptr inbounds %"class.google::protobuf::MessageLite", ptr %this1, i32 0, i32 1
  call void @_ZN6google8protobuf8internal16InternalMetadataC2Ev(ptr noundef nonnull align 8 dereferenceable(8) %_internal_metadata_)
  ret void
}

; Function Attrs: mustprogress uwtable
define linkonce_odr hidden void @_ZN6google8protobuf8internal14ArenaStringPtrC2EPNS1_21ExplicitlyConstructedINSt7__cxx1112basic_stringIcSt11char_traitsIcESaIcEEELm8EEENS1_19ConstantInitializedE(ptr noundef nonnull align 8 dereferenceable(8) %this, ptr noundef %default_value) unnamed_addr #4 comdat align 2 {
entry:
  %this.addr = alloca ptr, align 8
  %default_value.addr = alloca ptr, align 8
  store ptr %this, ptr %this.addr, align 8
  store ptr %default_value, ptr %default_value.addr, align 8
  %this1 = load ptr, ptr %this.addr, align 8
  %tagged_ptr_ = getelementptr inbounds %"struct.google::protobuf::internal::ArenaStringPtr", ptr %this1, i32 0, i32 0
  %0 = load ptr, ptr %default_value.addr, align 8
  call void @_ZN6google8protobuf8internal15TaggedStringPtrC2EPNS1_21ExplicitlyConstructedINSt7__cxx1112basic_stringIcSt11char_traitsIcESaIcEEELm8EEE(ptr noundef nonnull align 8 dereferenceable(8) %tagged_ptr_, ptr noundef %0)
  ret void
}

; Function Attrs: mustprogress nounwind uwtable
define linkonce_odr hidden void @_ZN6google8protobuf7MessageD2Ev(ptr noundef nonnull align 8 dereferenceable(16) %this) unnamed_addr #5 comdat align 2 {
entry:
  %this.addr = alloca ptr, align 8
  store ptr %this, ptr %this.addr, align 8
  %this1 = load ptr, ptr %this.addr, align 8
  call void @_ZN6google8protobuf11MessageLiteD2Ev(ptr noundef nonnull align 8 dereferenceable(16) %this1) #3
  ret void
}

; Function Attrs: mustprogress nounwind uwtable
define linkonce_odr hidden void @_ZN6google8protobuf8internal10CachedSizeC2Ev(ptr noundef nonnull align 4 dereferenceable(4) %this) unnamed_addr #5 comdat align 2 {
entry:
  %this.addr = alloca ptr, align 8
  store ptr %this, ptr %this.addr, align 8
  %this1 = load ptr, ptr %this.addr, align 8
  %atom_ = getelementptr inbounds %"class.google::protobuf::internal::CachedSize", ptr %this1, i32 0, i32 0
  store i32 0, ptr %atom_, align 4
  ret void
}

; Function Attrs: mustprogress uwtable
define linkonce_odr hidden void @_ZN6google8protobuf7MessageC2Ev(ptr noundef nonnull align 8 dereferenceable(16) %this) unnamed_addr #4 comdat align 2 {
entry:
  %this.addr = alloca ptr, align 8
  store ptr %this, ptr %this.addr, align 8
  %this1 = load ptr, ptr %this.addr, align 8
  call void @_ZN6google8protobuf11MessageLiteC2Ev(ptr noundef nonnull align 8 dereferenceable(16) %this1)
  store ptr getelementptr inbounds ({ [13 x ptr] }, ptr @_ZTVN6google8protobuf7MessageE, i32 0, i32 0, i32 2), ptr %this1, align 8
  ret void
}

; Function Attrs: mustprogress nounwind uwtable
define linkonce_odr hidden void @_ZN6google8protobuf8internal12MapEntryBaseD2Ev(ptr noundef nonnull align 8 dereferenceable(24) %this) unnamed_addr #5 comdat align 2 {
entry:
  %this.addr = alloca ptr, align 8
  store ptr %this, ptr %this.addr, align 8
  %this1 = load ptr, ptr %this.addr, align 8
  call void @_ZN6google8protobuf7MessageD2Ev(ptr noundef nonnull align 8 dereferenceable(16) %this1) #3
  ret void
}

; Function Attrs: mustprogress nounwind uwtable
define linkonce_odr hidden noundef ptr @_ZN6google8protobuf8internal14MapTypeHandlerILNS1_14WireFormatLite9FieldTypeE11ENS0_5ValueEE9ConstinitEv() #5 comdat align 2 {
entry:
  ret ptr null
}

; Function Attrs: mustprogress uwtable
define linkonce_odr hidden ptr @_ZN6google8protobuf8internal14MapTypeHandlerILNS1_14WireFormatLite9FieldTypeE9ENSt7__cxx1112basic_stringIcSt11char_traitsIcESaIcEEEE9ConstinitEv() #4 comdat align 2 {
entry:
  %retval = alloca %"struct.google::protobuf::internal::ArenaStringPtr", align 8
  call void @_ZN6google8protobuf8internal14ArenaStringPtrC2EPNS1_21ExplicitlyConstructedINSt7__cxx1112basic_stringIcSt11char_traitsIcESaIcEEELm8EEENS1_19ConstantInitializedE(ptr noundef nonnull align 8 dereferenceable(8) %retval, ptr noundef @_ZN6google8protobuf8internal26fixed_address_empty_stringB5cxx11E)
  %coerce.dive = getelementptr inbounds %"struct.google::protobuf::internal::ArenaStringPtr", ptr %retval, i32 0, i32 0
  %coerce.dive1 = getelementptr inbounds %"class.google::protobuf::internal::TaggedStringPtr", ptr %coerce.dive, i32 0, i32 0
  %0 = load ptr, ptr %coerce.dive1, align 8
  ret ptr %0
}

; Function Attrs: mustprogress uwtable
define linkonce_odr hidden void @_ZN6google8protobuf8internal12MapEntryBaseC2Ev(ptr noundef nonnull align 8 dereferenceable(24) %this) unnamed_addr #4 comdat align 2 personality ptr @__gxx_personality_v0 {
entry:
  %this.addr.i = alloca ptr, align 8
  %this.addr = alloca ptr, align 8
  %exn.slot = alloca ptr, align 8
  %ehselector.slot = alloca i32, align 4
  store ptr %this, ptr %this.addr, align 8
  %this1 = load ptr, ptr %this.addr, align 8
  call void @_ZN6google8protobuf7MessageC2Ev(ptr noundef nonnull align 8 dereferenceable(16) %this1)
  store ptr getelementptr inbounds ({ [13 x ptr] }, ptr @_ZTVN6google8protobuf8internal12MapEntryBaseE, i32 0, i32 0, i32 2), ptr %this1, align 8
  %_has_bits_ = getelementptr inbounds %"class.google::protobuf::internal::MapEntryBase", ptr %this1, i32 0, i32 1
  store ptr %_has_bits_, ptr %this.addr.i, align 8
  %this1.i = load ptr, ptr %this.addr.i, align 8
  %arrayinit.end.i = getelementptr inbounds i32, ptr %this1.i, i64 1
  br label %arrayinit.body.i

arrayinit.body.i:                                 ; preds = %arrayinit.body.i, %entry
  %arrayinit.cur.i = phi ptr [ %this1.i, %entry ], [ %arrayinit.next.i, %arrayinit.body.i ]
  store i32 0, ptr %arrayinit.cur.i, align 4
  %arrayinit.next.i = getelementptr inbounds i32, ptr %arrayinit.cur.i, i64 1
  %arrayinit.done.i = icmp eq ptr %arrayinit.next.i, %arrayinit.end.i
  br i1 %arrayinit.done.i, label %_ZN6google8protobuf8internal7HasBitsILi1EEC2Ev.exit, label %arrayinit.body.i

_ZN6google8protobuf8internal7HasBitsILi1EEC2Ev.exit: ; preds = %arrayinit.body.i
  br label %invoke.cont

invoke.cont:                                      ; preds = %_ZN6google8protobuf8internal7HasBitsILi1EEC2Ev.exit
  %_cached_size_ = getelementptr inbounds %"class.google::protobuf::internal::MapEntryBase", ptr %this1, i32 0, i32 2
  call void @_ZN6google8protobuf8internal10CachedSizeC2Ev(ptr noundef nonnull align 4 dereferenceable(4) %_cached_size_) #3
  ret void

lpad:                                             ; No predecessors!
  %0 = landingpad { ptr, i32 }
          cleanup
  %1 = extractvalue { ptr, i32 } %0, 0
  store ptr %1, ptr %exn.slot, align 8
  %2 = extractvalue { ptr, i32 } %0, 1
  store i32 %2, ptr %ehselector.slot, align 4
  call void @_ZN6google8protobuf7MessageD2Ev(ptr noundef nonnull align 8 dereferenceable(16) %this1) #3
  br label %eh.resume

eh.resume:                                        ; preds = %lpad
  %exn = load ptr, ptr %exn.slot, align 8
  %sel = load i32, ptr %ehselector.slot, align 4
  %lpad.val = insertvalue { ptr, i32 } poison, ptr %exn, 0
  %lpad.val2 = insertvalue { ptr, i32 } %lpad.val, i32 %sel, 1
  resume { ptr, i32 } %lpad.val2
}

; Function Attrs: mustprogress uwtable
define linkonce_odr hidden void @_ZN6google8protobuf8internal8MapEntryINS0_27Struct_FieldsEntry_DoNotUseENSt7__cxx1112basic_stringIcSt11char_traitsIcESaIcEEENS0_5ValueELNS1_14WireFormatLite9FieldTypeE9ELSC_11EEC2Ev(ptr noundef nonnull align 8 dereferenceable(40) %this) unnamed_addr #4 comdat align 2 personality ptr @__gxx_personality_v0 {
entry:
  %this.addr = alloca ptr, align 8
  %exn.slot = alloca ptr, align 8
  %ehselector.slot = alloca i32, align 4
  store ptr %this, ptr %this.addr, align 8
  %this1 = load ptr, ptr %this.addr, align 8
  call void @_ZN6google8protobuf8internal12MapEntryBaseC2Ev(ptr noundef nonnull align 8 dereferenceable(24) %this1)
  store ptr getelementptr inbounds ({ [13 x ptr] }, ptr @_ZTVN6google8protobuf8internal8MapEntryINS0_27Struct_FieldsEntry_DoNotUseENSt7__cxx1112basic_stringIcSt11char_traitsIcESaIcEEENS0_5ValueELNS1_14WireFormatLite9FieldTypeE9ELSC_11EEE, i32 0, i32 0, i32 2), ptr %this1, align 8
  %key_ = getelementptr inbounds %"class.google::protobuf::internal::MapEntry", ptr %this1, i32 0, i32 1
  %call = invoke ptr @_ZN6google8protobuf8internal14MapTypeHandlerILNS1_14WireFormatLite9FieldTypeE9ENSt7__cxx1112basic_stringIcSt11char_traitsIcESaIcEEEE9ConstinitEv()
          to label %invoke.cont unwind label %lpad

invoke.cont:                                      ; preds = %entry
  %coerce.dive = getelementptr inbounds %"struct.google::protobuf::internal::ArenaStringPtr", ptr %key_, i32 0, i32 0
  %coerce.dive2 = getelementptr inbounds %"class.google::protobuf::internal::TaggedStringPtr", ptr %coerce.dive, i32 0, i32 0
  store ptr %call, ptr %coerce.dive2, align 8
  %value_ = getelementptr inbounds %"class.google::protobuf::internal::MapEntry", ptr %this1, i32 0, i32 2
  %call4 = invoke noundef ptr @_ZN6google8protobuf8internal14MapTypeHandlerILNS1_14WireFormatLite9FieldTypeE11ENS0_5ValueEE9ConstinitEv()
          to label %invoke.cont3 unwind label %lpad

invoke.cont3:                                     ; preds = %invoke.cont
  store ptr %call4, ptr %value_, align 8
  ret void

lpad:                                             ; preds = %invoke.cont, %entry
  %0 = landingpad { ptr, i32 }
          cleanup
  %1 = extractvalue { ptr, i32 } %0, 0
  store ptr %1, ptr %exn.slot, align 8
  %2 = extractvalue { ptr, i32 } %0, 1
  store i32 %2, ptr %ehselector.slot, align 4
  call void @_ZN6google8protobuf8internal12MapEntryBaseD2Ev(ptr noundef nonnull align 8 dereferenceable(24) %this1) #3
  br label %eh.resume

eh.resume:                                        ; preds = %lpad
  %exn = load ptr, ptr %exn.slot, align 8
  %sel = load i32, ptr %ehselector.slot, align 4
  %lpad.val = insertvalue { ptr, i32 } poison, ptr %exn, 0
  %lpad.val5 = insertvalue { ptr, i32 } %lpad.val, i32 %sel, 1
  resume { ptr, i32 } %lpad.val5
}

; Function Attrs: mustprogress uwtable
define hidden void @_ZN6google8protobuf27Struct_FieldsEntry_DoNotUseC2Ev(ptr noundef nonnull align 8 dereferenceable(40) %this) unnamed_addr #4 align 2 {
entry:
  %this.addr = alloca ptr, align 8
  store ptr %this, ptr %this.addr, align 8
  %this1 = load ptr, ptr %this.addr, align 8
  call void @_ZN6google8protobuf8internal8MapEntryINS0_27Struct_FieldsEntry_DoNotUseENSt7__cxx1112basic_stringIcSt11char_traitsIcESaIcEEENS0_5ValueELNS1_14WireFormatLite9FieldTypeE9ELSC_11EEC2Ev(ptr noundef nonnull align 8 dereferenceable(40) %this1)
  store ptr getelementptr inbounds ({ [13 x ptr] }, ptr @_ZTVN6google8protobuf27Struct_FieldsEntry_DoNotUseE, i32 0, i32 0, i32 2), ptr %this1, align 8
  ret void
}