; Function Attrs: mustprogress nofree norecurse nosync nounwind willreturn memory(argmem: write) uwtable
define hidden void @_ZN6google8protobuf27Struct_FieldsEntry_DoNotUseC2Ev(ptr nocapture noundef nonnull writeonly align 8 dereferenceable(40) %this) unnamed_addr #5 align 2 personality ptr @__gxx_personality_v0 {
entry:
  %_internal_metadata_.i.i.i.i = getelementptr inbounds i8, ptr %this, i64 8
  tail call void @llvm.memset.p0.i64(ptr noundef nonnull align 8 dereferenceable(16) %_internal_metadata_.i.i.i.i, i8 0, i64 16, i1 false)
  %key_.i = getelementptr inbounds i8, ptr %this, i64 24
  store ptr @_ZN6google8protobuf8internal26fixed_address_empty_stringB5cxx11E, ptr %key_.i, align 8
  %value_.i = getelementptr inbounds i8, ptr %this, i64 32
  store ptr null, ptr %value_.i, align 8
  store ptr getelementptr inbounds ({ [13 x ptr] }, ptr @_ZTVN6google8protobuf27Struct_FieldsEntry_DoNotUseE, i64 0, i32 0, i64 2), ptr %this, align 8
  ret void
}